; Function Attrs: nounwind uwtable
define internal fastcc noundef ptr @_readCreateStatsStmt() unnamed_addr #0 {
  %1 = alloca i32, align 4
  %2 = tail call noundef ptr @palloc0(i64 noundef 56) #10
  store i32 204, ptr %2, align 4
  call void @llvm.lifetime.start.p0(i64 4, ptr nonnull %1) #10
  %3 = call ptr @pg_strtok(ptr noundef nonnull %1) #10
  %4 = call ptr @nodeRead(ptr noundef null, i32 noundef 0) #10
  %5 = getelementptr inbounds nuw i8, ptr %2, i64 8
  store ptr %4, ptr %5, align 8
  %6 = call ptr @pg_strtok(ptr noundef nonnull %1) #10
  %7 = call ptr @nodeRead(ptr noundef null, i32 noundef 0) #10
  %8 = getelementptr inbounds nuw i8, ptr %2, i64 16
  store ptr %7, ptr %8, align 8
  %9 = call ptr @pg_strtok(ptr noundef nonnull %1) #10
  %10 = call ptr @nodeRead(ptr noundef null, i32 noundef 0) #10
  %11 = getelementptr inbounds nuw i8, ptr %2, i64 24
  store ptr %10, ptr %11, align 8
  %12 = call ptr @pg_strtok(ptr noundef nonnull %1) #10
  %13 = call ptr @nodeRead(ptr noundef null, i32 noundef 0) #10
  %14 = getelementptr inbounds nuw i8, ptr %2, i64 32
  store ptr %13, ptr %14, align 8
  %15 = call ptr @pg_strtok(ptr noundef nonnull %1) #10
  %16 = call ptr @pg_strtok(ptr noundef nonnull %1) #10
  %17 = load i32, ptr %1, align 4
  switch i32 %17, label %27 [
    i32 0, label %nullable_string.exit
    i32 2, label %18
  ]

18:                                               ; preds = %0
  %19 = load i8, ptr %16, align 1
  %20 = icmp eq i8 %19, 34
  br i1 %20, label %21, label %27

21:                                               ; preds = %18
  %22 = getelementptr inbounds nuw i8, ptr %16, i64 1
  %23 = load i8, ptr %22, align 1
  %24 = icmp eq i8 %23, 34
  br i1 %24, label %25, label %27

25:                                               ; preds = %21
  %26 = call ptr @pstrdup(ptr noundef nonnull @.str.326) #10
  br label %nullable_string.exit

27:                                               ; preds = %21, %18, %0
  %28 = call ptr @debackslash(ptr noundef %16, i32 noundef %17) #10
  br label %nullable_string.exit

nullable_string.exit:                             ; preds = %0, %25, %27
  %.0.i = phi ptr [ %26, %25 ], [ %28, %27 ], [ null, %0 ]
  %29 = getelementptr inbounds nuw i8, ptr %2, i64 40
  store ptr %.0.i, ptr %29, align 8
  %30 = call ptr @pg_strtok(ptr noundef nonnull %1) #10
  %31 = call ptr @pg_strtok(ptr noundef nonnull %1) #10
  %32 = load i8, ptr %31, align 1
  %33 = icmp eq i8 %32, 116
  %34 = getelementptr inbounds nuw i8, ptr %2, i64 48
  %35 = zext i1 %33 to i8
  store i8 %35, ptr %34, align 8
  %36 = call ptr @pg_strtok(ptr noundef nonnull %1) #10
  %37 = call ptr @pg_strtok(ptr noundef nonnull %1) #10
  %38 = load i8, ptr %37, align 1
  %39 = icmp eq i8 %38, 116
  %40 = getelementptr inbounds nuw i8, ptr %2, i64 49
  %41 = zext i1 %39 to i8
  store i8 %41, ptr %40, align 1
  call void @llvm.lifetime.end.p0(i64 4, ptr nonnull %1) #10
  ret ptr %2
}